target datalayout = "e-m:e-p270:32:32-p271:32:32-p272:64:64-i64:64-i128:128-f80:128-n8:16:32:64-S128"
target triple = "x86_64-pc-linux-gnu"

%class.QString = type { %struct.QArrayDataPointer }
%struct.QArrayDataPointer = type { ptr, ptr, i64 }
%class.QPaintDevice.base = type <{ ptr, i16 }>
%class.TCPStreamDialog = type { %class.GeometryStateDialog, ptr, ptr, %class.QMultiMap, double, i8, %class.QMap, double, i8, %struct.tcp_graph, ptr, %class.QString, ptr, ptr, ptr, ptr, ptr, ptr, ptr, ptr, ptr, ptr, ptr, ptr, ptr, ptr, %class.QRectF, i32, [4 x i8], %class.QTransform, i8, ptr, %class.QPoint, %class.QMenu, %"class.TCPStreamDialog::GraphUpdater", i32, i32, i32, double }
%class.GeometryStateDialog = type { %class.QDialog, %class.QString }
%class.QDialog = type { %class.QWidget }
%class.QWidget = type { %class.QObject, %class.QPaintDevice.base, ptr }
%class.QObject = type { ptr, %class.QScopedPointer }
%class.QScopedPointer = type { ptr }
%class.QMultiMap = type { %"class.QtPrivate::QExplicitlySharedDataPointerV2" }
%"class.QtPrivate::QExplicitlySharedDataPointerV2" = type { ptr }
%class.QMap = type { %"class.QtPrivate::QExplicitlySharedDataPointerV2.5" }
%"class.QtPrivate::QExplicitlySharedDataPointerV2.5" = type { ptr }
%struct.tcp_graph = type { i32, %struct._address, i16, %struct._address, i16, i32, ptr }
%struct._address = type { i32, i32, ptr, ptr }
%class.QRectF = type { double, double, double, double }
%class.QTransform = type <{ [3 x [3 x double]], i16, [6 x i8] }>
%class.QPoint = type { i32, i32 }
%class.QMenu = type { %class.QWidget }
%"class.TCPStreamDialog::GraphUpdater" = type <{ ptr, ptr, i8, [7 x i8] }>
%class.Ui_TCPStreamDialog = type { ptr, ptr, ptr, ptr, ptr, ptr, ptr, ptr, ptr, ptr, ptr, ptr, ptr, ptr, ptr, ptr, ptr, ptr, ptr, ptr, ptr, ptr, ptr, ptr, ptr, ptr, ptr, ptr, ptr, ptr, ptr, ptr, ptr, ptr, ptr, ptr, ptr, ptr, ptr, ptr, ptr, ptr, ptr, ptr, ptr, ptr, ptr, ptr, ptr, ptr, ptr, ptr, ptr, ptr, ptr, ptr, ptr }

; Function Attrs: mustprogress uwtable
define void @_ZN15TCPStreamDialog35on_showGoodputCheckBox_stateChangedEi(ptr noundef nonnull align 8 dereferenceable(584) %0, i32 noundef %1) #1 align 2 {
  %3 = alloca ptr, align 8
  %4 = alloca i32, align 4
  %5 = alloca i8, align 1
  store ptr %0, ptr %3, align 8
  store i32 %1, ptr %4, align 4
  %6 = load ptr, ptr %3, align 8
  %7 = load i32, ptr %4, align 4
  %8 = icmp ne i32 %7, 0
  %9 = zext i1 %8 to i8
  store i8 %9, ptr %5, align 1
  %10 = getelementptr inbounds %class.TCPStreamDialog, ptr %6, i32 0, i32 9
  %11 = getelementptr inbounds %struct.tcp_graph, ptr %10, i32 0, i32 0
  %12 = load i32, ptr %11, align 8
  %13 = icmp eq i32 %12, 2
  br i1 %13, label %14, label %27

14:                                               ; preds = %2
  %15 = getelementptr inbounds %class.TCPStreamDialog, ptr %6, i32 0, i32 14
  %16 = load ptr, ptr %15, align 8
  %17 = icmp ne ptr %16, null
  br i1 %17, label %18, label %27

18:                                               ; preds = %14
  %19 = getelementptr inbounds %class.TCPStreamDialog, ptr %6, i32 0, i32 14
  %20 = load ptr, ptr %19, align 8
  %21 = load i8, ptr %5, align 1
  %22 = trunc i8 %21 to i1
  call void @_ZN12QCPLayerable10setVisibleEb(ptr noundef nonnull align 8 dereferenceable(57) %20, i1 noundef zeroext %22)
  %23 = getelementptr inbounds %class.TCPStreamDialog, ptr %6, i32 0, i32 1
  %24 = load ptr, ptr %23, align 8
  %25 = getelementptr inbounds %class.Ui_TCPStreamDialog, ptr %24, i32 0, i32 29
  %26 = load ptr, ptr %25, align 8
  call void @_ZN11QCustomPlot6replotENS_15RefreshPriorityE(ptr noundef nonnull align 8 dereferenceable(513) %26, i32 noundef 2)
  br label %27

27:                                               ; preds = %18, %14, %2
  ret void
}