; Function Attrs: mustprogress uwtable
define void @_ZN15TCPStreamDialog35on_showGoodputCheckBox_stateChangedEi(ptr nocapture noundef nonnull readonly align 8 dereferenceable(584) %0, i32 noundef %1) local_unnamed_addr #2 align 2 {
  %3 = icmp ne i32 %1, 0
  %4 = getelementptr inbounds i8, ptr %0, i64 128
  %5 = load i32, ptr %4, align 8
  %6 = icmp eq i32 %5, 2
  br i1 %6, label %7, label %15

7:                                                ; preds = %2
  %8 = getelementptr inbounds i8, ptr %0, i64 256
  %9 = load ptr, ptr %8, align 8
  %.not = icmp eq ptr %9, null
  br i1 %.not, label %15, label %10

10:                                               ; preds = %7
  tail call void @_ZN12QCPLayerable10setVisibleEb(ptr noundef nonnull align 8 dereferenceable(57) %9, i1 noundef zeroext %3)
  %11 = getelementptr inbounds i8, ptr %0, i64 64
  %12 = load ptr, ptr %11, align 8
  %13 = getelementptr inbounds i8, ptr %12, i64 232
  %14 = load ptr, ptr %13, align 8
  tail call void @_ZN11QCustomPlot6replotENS_15RefreshPriorityE(ptr noundef nonnull align 8 dereferenceable(513) %14, i32 noundef 2)
  br label %15

15:                                               ; preds = %10, %7, %2
  ret void
}